target datalayout = "e-m:e-p270:32:32-p271:32:32-p272:64:64-i64:64-i128:128-f80:128-n8:16:32:64-S128"
target triple = "x86_64-pc-linux-gnu"

%struct.FFOutputFormat = type { %struct.AVOutputFormat, i32, i32, ptr, ptr, ptr, ptr, ptr, ptr, ptr, ptr, ptr, ptr, ptr, ptr }
%struct.AVOutputFormat = type { ptr, ptr, ptr, ptr, i32, i32, i32, i32, ptr, ptr }
%struct.AVFormatContext = type { ptr, ptr, ptr, ptr, ptr, i32, i32, ptr, i32, ptr, i32, ptr, ptr, i64, i64, i64, i32, i32, i32, i64, i64, ptr, i32, i32, ptr, i32, i32, i32, i32, ptr, i64, i32, i32, %struct.AVIOInterruptCB, i32, i32, i32, i32, i64, i32, i32, i32, i32, i32, i32, i32, i32, i32, i32, i32, i32, i64, i32, i32, i32, i32, i32, ptr, ptr, ptr, ptr, i32, ptr, ptr, ptr, ptr, i32, ptr, ptr, i64, ptr, ptr, ptr, i64 }
%struct.AVIOInterruptCB = type { ptr, ptr }
%struct.AVStream = type { ptr, i32, i32, ptr, ptr, %struct.AVRational, i64, i64, i64, i32, i32, %struct.AVRational, ptr, %struct.AVRational, %struct.AVPacket, i32, %struct.AVRational, i32 }
%struct.AVPacket = type { ptr, i64, i64, ptr, i32, i32, i32, ptr, i32, i64, i64, ptr, ptr, %struct.AVRational }
%struct.AVRational = type { i32, i32 }
%struct.AVCodecParameters = type { i32, i32, i32, ptr, i32, ptr, i32, i32, i64, i32, i32, i32, i32, i32, i32, %struct.AVRational, %struct.AVRational, i32, i32, i32, i32, i32, i32, i32, %struct.AVChannelLayout, i32, i32, i32, i32, i32, i32 }
%struct.AVChannelLayout = type { i32, i32, %union.anon, ptr }
%union.anon = type { i64 }

@.str = private unnamed_addr constant [4 x i8] c"a64\00", align 1
@.str.1 = private unnamed_addr constant [29 x i8] c"a64 - video for Commodore 64\00", align 1
@.str.2 = private unnamed_addr constant [9 x i8] c"a64, A64\00", align 1
@ff_a64_muxer = constant %struct.FFOutputFormat { %struct.AVOutputFormat { ptr @.str, ptr @.str.1, ptr null, ptr @.str.2, i32 0, i32 142, i32 0, i32 0, ptr null, ptr null }, i32 0, i32 4, ptr @a64_write_header, ptr @ff_raw_write_packet, ptr null, ptr null, ptr null, ptr null, ptr null, ptr null, ptr null, ptr null, ptr null, ptr null }, align 8
@__const.a64_write_header.header = private unnamed_addr constant [5 x i8] c"\00@\00\00\00", align 1
@.str.3 = private unnamed_addr constant [19 x i8] c"Missing extradata\0A\00", align 1

; Function Attrs: nounwind uwtable
define internal i32 @a64_write_header(ptr noundef %0) #0 {
  %2 = alloca i32, align 4
  %3 = alloca ptr, align 8
  %4 = alloca ptr, align 8
  %5 = alloca [5 x i8], align 1
  %6 = alloca i32, align 4
  store ptr %0, ptr %3, align 8, !tbaa !4
  call void @llvm.lifetime.start.p0(i64 8, ptr %4) #5
  %7 = load ptr, ptr %3, align 8, !tbaa !4
  %8 = getelementptr inbounds nuw %struct.AVFormatContext, ptr %7, i32 0, i32 7
  %9 = load ptr, ptr %8, align 8, !tbaa !9
  %10 = getelementptr inbounds ptr, ptr %9, i64 0
  %11 = load ptr, ptr %10, align 8, !tbaa !26
  %12 = getelementptr inbounds nuw %struct.AVStream, ptr %11, i32 0, i32 3
  %13 = load ptr, ptr %12, align 8, !tbaa !28
  store ptr %13, ptr %4, align 8, !tbaa !35
  call void @llvm.lifetime.start.p0(i64 5, ptr %5) #5
  call void @llvm.memcpy.p0.p0.i64(ptr align 1 %5, ptr align 1 @__const.a64_write_header.header, i64 5, i1 false)
  %14 = load ptr, ptr %4, align 8, !tbaa !35
  %15 = getelementptr inbounds nuw %struct.AVCodecParameters, ptr %14, i32 0, i32 4
  %16 = load i32, ptr %15, align 8, !tbaa !36
  %17 = icmp slt i32 %16, 4
  br i1 %17, label %18, label %20

18:                                               ; preds = %1
  %19 = load ptr, ptr %3, align 8, !tbaa !4
  call void (ptr, i32, ptr, ...) @av_log(ptr noundef %19, i32 noundef 16, ptr noundef @.str.3)
  store i32 -1094995529, ptr %2, align 4
  store i32 1, ptr %6, align 4
  br label %52

20:                                               ; preds = %1
  %21 = load ptr, ptr %4, align 8, !tbaa !35
  %22 = getelementptr inbounds nuw %struct.AVCodecParameters, ptr %21, i32 0, i32 1
  %23 = load i32, ptr %22, align 4, !tbaa !39
  switch i32 %23, label %46 [
    i32 142, label %24
    i32 143, label %35
  ]

24:                                               ; preds = %20
  %25 = getelementptr inbounds [5 x i8], ptr %5, i64 0, i64 2
  store i8 0, ptr %25, align 1, !tbaa !40
  %26 = load ptr, ptr %4, align 8, !tbaa !35
  %27 = getelementptr inbounds nuw %struct.AVCodecParameters, ptr %26, i32 0, i32 3
  %28 = load ptr, ptr %27, align 8, !tbaa !41
  %29 = getelementptr inbounds i8, ptr %28, i64 0
  %30 = load i32, ptr %29, align 1, !tbaa !40
  %31 = call i32 @av_bswap32(i32 noundef %30) #6
  %32 = trunc i32 %31 to i8
  %33 = getelementptr inbounds [5 x i8], ptr %5, i64 0, i64 3
  store i8 %32, ptr %33, align 1, !tbaa !40
  %34 = getelementptr inbounds [5 x i8], ptr %5, i64 0, i64 4
  store i8 2, ptr %34, align 1, !tbaa !40
  br label %47

35:                                               ; preds = %20
  %36 = getelementptr inbounds [5 x i8], ptr %5, i64 0, i64 2
  store i8 1, ptr %36, align 1, !tbaa !40
  %37 = load ptr, ptr %4, align 8, !tbaa !35
  %38 = getelementptr inbounds nuw %struct.AVCodecParameters, ptr %37, i32 0, i32 3
  %39 = load ptr, ptr %38, align 8, !tbaa !41
  %40 = getelementptr inbounds i8, ptr %39, i64 0
  %41 = load i32, ptr %40, align 1, !tbaa !40
  %42 = call i32 @av_bswap32(i32 noundef %41) #6
  %43 = trunc i32 %42 to i8
  %44 = getelementptr inbounds [5 x i8], ptr %5, i64 0, i64 3
  store i8 %43, ptr %44, align 1, !tbaa !40
  %45 = getelementptr inbounds [5 x i8], ptr %5, i64 0, i64 4
  store i8 3, ptr %45, align 1, !tbaa !40
  br label %47

46:                                               ; preds = %20
  store i32 -1094995529, ptr %2, align 4
  store i32 1, ptr %6, align 4
  br label %52

47:                                               ; preds = %35, %24
  %48 = load ptr, ptr %3, align 8, !tbaa !4
  %49 = getelementptr inbounds nuw %struct.AVFormatContext, ptr %48, i32 0, i32 4
  %50 = load ptr, ptr %49, align 8, !tbaa !42
  %51 = getelementptr inbounds [5 x i8], ptr %5, i64 0, i64 0
  call void @avio_write(ptr noundef %50, ptr noundef %51, i32 noundef 2)
  store i32 0, ptr %2, align 4
  store i32 1, ptr %6, align 4
  br label %52

52:                                               ; preds = %47, %46, %18
  call void @llvm.lifetime.end.p0(i64 5, ptr %5) #5
  call void @llvm.lifetime.end.p0(i64 8, ptr %4) #5
  %53 = load i32, ptr %2, align 4
  ret i32 %53
}

declare i32 @ff_raw_write_packet(ptr noundef, ptr noundef) #1

; Function Attrs: nocallback nofree nosync nounwind willreturn memory(argmem: readwrite)
declare void @llvm.lifetime.start.p0(i64 immarg, ptr captures(none)) #2

; Function Attrs: nocallback nofree nounwind willreturn memory(argmem: readwrite)
declare void @llvm.memcpy.p0.p0.i64(ptr noalias writeonly captures(none), ptr noalias readonly captures(none), i64, i1 immarg) #3

declare void @av_log(ptr noundef, i32 noundef, ptr noundef, ...) #1

; Function Attrs: alwaysinline nounwind willreturn memory(none) uwtable
define internal i32 @av_bswap32(i32 noundef %0) #4 {
  %2 = alloca i32, align 4
  store i32 %0, ptr %2, align 4, !tbaa !43
  %3 = load i32, ptr %2, align 4, !tbaa !43
  %4 = shl i32 %3, 8
  %5 = and i32 %4, 65280
  %6 = load i32, ptr %2, align 4, !tbaa !43
  %7 = lshr i32 %6, 8
  %8 = and i32 %7, 255
  %9 = or i32 %5, %8
  %10 = shl i32 %9, 16
  %11 = load i32, ptr %2, align 4, !tbaa !43
  %12 = lshr i32 %11, 16
  %13 = shl i32 %12, 8
  %14 = and i32 %13, 65280
  %15 = load i32, ptr %2, align 4, !tbaa !43
  %16 = lshr i32 %15, 16
  %17 = lshr i32 %16, 8
  %18 = and i32 %17, 255
  %19 = or i32 %14, %18
  %20 = or i32 %10, %19
  ret i32 %20
}

declare void @avio_write(ptr noundef, ptr noundef, i32 noundef) #1

; Function Attrs: nocallback nofree nosync nounwind willreturn memory(argmem: readwrite)
declare void @llvm.lifetime.end.p0(i64 immarg, ptr captures(none)) #2


!llvm.module.flags = !{!0, !1, !2, !3}

!0 = !{i32 1, !"wchar_size", i32 4}
!1 = !{i32 8, !"PIC Level", i32 2}
!2 = !{i32 7, !"uwtable", i32 2}
!3 = !{i32 1, !"override-stack-alignment", i32 16}
!4 = !{!5, !5, i64 0}
!5 = !{!"p1 _ZTS15AVFormatContext", !6, i64 0}
!6 = !{!"any pointer", !7, i64 0}
!7 = !{!"omnipotent char", !8, i64 0}
!8 = !{!"Simple C/C++ TBAA"}
!9 = !{!10, !16, i64 48}
!10 = !{!"AVFormatContext", !11, i64 0, !12, i64 8, !13, i64 16, !6, i64 24, !14, i64 32, !15, i64 40, !15, i64 44, !16, i64 48, !15, i64 56, !18, i64 64, !15, i64 72, !19, i64 80, !20, i64 88, !21, i64 96, !21, i64 104, !21, i64 112, !15, i64 120, !15, i64 124, !15, i64 128, !21, i64 136, !21, i64 144, !20, i64 152, !15, i64 160, !15, i64 164, !22, i64 168, !15, i64 176, !15, i64 180, !15, i64 184, !15, i64 188, !23, i64 192, !21, i64 200, !15, i64 208, !15, i64 212, !24, i64 216, !15, i64 232, !15, i64 236, !15, i64 240, !15, i64 244, !21, i64 248, !15, i64 256, !15, i64 260, !15, i64 264, !15, i64 268, !15, i64 272, !15, i64 276, !15, i64 280, !15, i64 284, !15, i64 288, !15, i64 292, !15, i64 296, !15, i64 300, !21, i64 304, !15, i64 312, !15, i64 316, !15, i64 320, !15, i64 324, !15, i64 328, !20, i64 336, !20, i64 344, !20, i64 352, !20, i64 360, !15, i64 368, !25, i64 376, !25, i64 384, !25, i64 392, !25, i64 400, !15, i64 408, !6, i64 416, !6, i64 424, !21, i64 432, !20, i64 440, !6, i64 448, !6, i64 456, !21, i64 464}
!11 = !{!"p1 _ZTS7AVClass", !6, i64 0}
!12 = !{!"p1 _ZTS13AVInputFormat", !6, i64 0}
!13 = !{!"p1 _ZTS14AVOutputFormat", !6, i64 0}
!14 = !{!"p1 _ZTS11AVIOContext", !6, i64 0}
!15 = !{!"int", !7, i64 0}
!16 = !{!"p2 _ZTS8AVStream", !17, i64 0}
!17 = !{!"any p2 pointer", !6, i64 0}
!18 = !{!"p2 _ZTS13AVStreamGroup", !17, i64 0}
!19 = !{!"p2 _ZTS9AVChapter", !17, i64 0}
!20 = !{!"p1 omnipotent char", !6, i64 0}
!21 = !{!"long", !7, i64 0}
!22 = !{!"p2 _ZTS9AVProgram", !17, i64 0}
!23 = !{!"p1 _ZTS12AVDictionary", !6, i64 0}
!24 = !{!"AVIOInterruptCB", !6, i64 0, !6, i64 8}
!25 = !{!"p1 _ZTS7AVCodec", !6, i64 0}
!26 = !{!27, !27, i64 0}
!27 = !{!"p1 _ZTS8AVStream", !6, i64 0}
!28 = !{!29, !30, i64 16}
!29 = !{!"AVStream", !11, i64 0, !15, i64 8, !15, i64 12, !30, i64 16, !6, i64 24, !31, i64 32, !21, i64 40, !21, i64 48, !21, i64 56, !15, i64 64, !15, i64 68, !31, i64 72, !23, i64 80, !31, i64 88, !32, i64 96, !15, i64 200, !31, i64 204, !15, i64 212}
!30 = !{!"p1 _ZTS17AVCodecParameters", !6, i64 0}
!31 = !{!"AVRational", !15, i64 0, !15, i64 4}
!32 = !{!"AVPacket", !33, i64 0, !21, i64 8, !21, i64 16, !20, i64 24, !15, i64 32, !15, i64 36, !15, i64 40, !34, i64 48, !15, i64 56, !21, i64 64, !21, i64 72, !6, i64 80, !33, i64 88, !31, i64 96}
!33 = !{!"p1 _ZTS11AVBufferRef", !6, i64 0}
!34 = !{!"p1 _ZTS16AVPacketSideData", !6, i64 0}
!35 = !{!30, !30, i64 0}
!36 = !{!37, !15, i64 24}
!37 = !{!"AVCodecParameters", !15, i64 0, !15, i64 4, !15, i64 8, !20, i64 16, !15, i64 24, !34, i64 32, !15, i64 40, !15, i64 44, !21, i64 48, !15, i64 56, !15, i64 60, !15, i64 64, !15, i64 68, !15, i64 72, !15, i64 76, !31, i64 80, !31, i64 88, !15, i64 96, !15, i64 100, !15, i64 104, !15, i64 108, !15, i64 112, !15, i64 116, !15, i64 120, !38, i64 128, !15, i64 152, !15, i64 156, !15, i64 160, !15, i64 164, !15, i64 168, !15, i64 172}
!38 = !{!"AVChannelLayout", !15, i64 0, !15, i64 4, !7, i64 8, !6, i64 16}
!39 = !{!37, !15, i64 4}
!40 = !{!7, !7, i64 0}
!41 = !{!37, !20, i64 16}
!42 = !{!10, !14, i64 32}
!43 = !{!15, !15, i64 0}
