; ModuleID = 'bench/ffmpeg/original/a64.ll'
source_filename = "bench/ffmpeg/original/a64.ll"
target datalayout = "e-m:e-p270:32:32-p271:32:32-p272:64:64-i64:64-i128:128-f80:128-n8:16:32:64-S128"
target triple = "x86_64-pc-linux-gnu"

%struct.FFOutputFormat = type { %struct.AVOutputFormat, i32, i32, ptr, ptr, ptr, ptr, ptr, ptr, ptr, ptr, ptr, ptr, ptr, ptr }
%struct.AVOutputFormat = type { ptr, ptr, ptr, ptr, i32, i32, i32, i32, ptr, ptr }

@.str = private unnamed_addr constant [4 x i8] c"a64\00", align 1
@.str.1 = private unnamed_addr constant [29 x i8] c"a64 - video for Commodore 64\00", align 1
@.str.2 = private unnamed_addr constant [9 x i8] c"a64, A64\00", align 1
@ff_a64_muxer = local_unnamed_addr constant %struct.FFOutputFormat { %struct.AVOutputFormat { ptr @.str, ptr @.str.1, ptr null, ptr @.str.2, i32 0, i32 142, i32 0, i32 0, ptr null, ptr null }, i32 0, i32 4, ptr @a64_write_header, ptr @ff_raw_write_packet, ptr null, ptr null, ptr null, ptr null, ptr null, ptr null, ptr null, ptr null, ptr null, ptr null }, align 8
@__const.a64_write_header.header = private unnamed_addr constant [5 x i8] c"\00@\00\00\00", align 1
@.str.3 = private unnamed_addr constant [19 x i8] c"Missing extradata\0A\00", align 1

; Function Attrs: nounwind uwtable
define internal range(i32 -1094995529, 1) i32 @a64_write_header(ptr noundef %0) #0 {
  %2 = alloca [5 x i8], align 1
  %3 = getelementptr inbounds nuw i8, ptr %0, i64 48
  %4 = load ptr, ptr %3, align 8, !tbaa !4
  %5 = load ptr, ptr %4, align 8, !tbaa !24
  %6 = getelementptr inbounds nuw i8, ptr %5, i64 16
  %7 = load ptr, ptr %6, align 8, !tbaa !26
  call void @llvm.lifetime.start.p0(i64 5, ptr nonnull %2) #4
  call void @llvm.memcpy.p0.p0.i64(ptr noundef nonnull align 1 dereferenceable(5) %2, ptr noundef nonnull align 1 dereferenceable(5) @__const.a64_write_header.header, i64 5, i1 false)
  %8 = getelementptr inbounds nuw i8, ptr %7, i64 24
  %9 = load i32, ptr %8, align 8, !tbaa !33
  %10 = icmp slt i32 %9, 4
  br i1 %10, label %11, label %12

11:                                               ; preds = %1
  tail call void (ptr, i32, ptr, ...) @av_log(ptr noundef nonnull %0, i32 noundef 16, ptr noundef nonnull @.str.3) #4
  br label %27

12:                                               ; preds = %1
  %13 = getelementptr inbounds nuw i8, ptr %7, i64 4
  %14 = load i32, ptr %13, align 4, !tbaa !36
  switch i32 %14, label %27 [
    i32 142, label %16
    i32 143, label %15
  ]

15:                                               ; preds = %12
  br label %16

16:                                               ; preds = %12, %15
  %.sink14 = phi i8 [ 1, %15 ], [ 0, %12 ]
  %.sink = phi i8 [ 3, %15 ], [ 2, %12 ]
  %17 = getelementptr inbounds nuw i8, ptr %2, i64 2
  store i8 %.sink14, ptr %17, align 1, !tbaa !37
  %18 = getelementptr inbounds nuw i8, ptr %7, i64 16
  %19 = load ptr, ptr %18, align 8, !tbaa !38
  %20 = load i32, ptr %19, align 1, !tbaa !37
  %21 = lshr i32 %20, 24
  %22 = trunc nuw i32 %21 to i8
  %23 = getelementptr inbounds nuw i8, ptr %2, i64 3
  store i8 %22, ptr %23, align 1, !tbaa !37
  %24 = getelementptr inbounds nuw i8, ptr %2, i64 4
  store i8 %.sink, ptr %24, align 1, !tbaa !37
  %25 = getelementptr inbounds nuw i8, ptr %0, i64 32
  %26 = load ptr, ptr %25, align 8, !tbaa !39
  call void @avio_write(ptr noundef %26, ptr noundef nonnull %2, i32 noundef 2) #4
  br label %27

27:                                               ; preds = %12, %16, %11
  %.0 = phi i32 [ -1094995529, %11 ], [ 0, %16 ], [ -1094995529, %12 ]
  call void @llvm.lifetime.end.p0(i64 5, ptr nonnull %2) #4
  ret i32 %.0
}

declare i32 @ff_raw_write_packet(ptr noundef, ptr noundef) #1

; Function Attrs: mustprogress nocallback nofree nosync nounwind willreturn memory(argmem: readwrite)
declare void @llvm.lifetime.start.p0(i64 immarg, ptr captures(none)) #2

; Function Attrs: mustprogress nocallback nofree nounwind willreturn memory(argmem: readwrite)
declare void @llvm.memcpy.p0.p0.i64(ptr noalias writeonly captures(none), ptr noalias readonly captures(none), i64, i1 immarg) #3

declare void @av_log(ptr noundef, i32 noundef, ptr noundef, ...) local_unnamed_addr #1

declare void @avio_write(ptr noundef, ptr noundef, i32 noundef) local_unnamed_addr #1

; Function Attrs: mustprogress nocallback nofree nosync nounwind willreturn memory(argmem: readwrite)
declare void @llvm.lifetime.end.p0(i64 immarg, ptr captures(none)) #2


!llvm.module.flags = !{!0, !1, !2, !3}

!0 = !{i32 1, !"wchar_size", i32 4}
!1 = !{i32 8, !"PIC Level", i32 2}
!2 = !{i32 7, !"uwtable", i32 2}
!3 = !{i32 1, !"override-stack-alignment", i32 16}
!4 = !{!5, !14, i64 48}
!5 = !{!"AVFormatContext", !6, i64 0, !10, i64 8, !11, i64 16, !7, i64 24, !12, i64 32, !13, i64 40, !13, i64 44, !14, i64 48, !13, i64 56, !16, i64 64, !13, i64 72, !17, i64 80, !18, i64 88, !19, i64 96, !19, i64 104, !19, i64 112, !13, i64 120, !13, i64 124, !13, i64 128, !19, i64 136, !19, i64 144, !18, i64 152, !13, i64 160, !13, i64 164, !20, i64 168, !13, i64 176, !13, i64 180, !13, i64 184, !13, i64 188, !21, i64 192, !19, i64 200, !13, i64 208, !13, i64 212, !22, i64 216, !13, i64 232, !13, i64 236, !13, i64 240, !13, i64 244, !19, i64 248, !13, i64 256, !13, i64 260, !13, i64 264, !13, i64 268, !13, i64 272, !13, i64 276, !13, i64 280, !13, i64 284, !13, i64 288, !13, i64 292, !13, i64 296, !13, i64 300, !19, i64 304, !13, i64 312, !13, i64 316, !13, i64 320, !13, i64 324, !13, i64 328, !18, i64 336, !18, i64 344, !18, i64 352, !18, i64 360, !13, i64 368, !23, i64 376, !23, i64 384, !23, i64 392, !23, i64 400, !13, i64 408, !7, i64 416, !7, i64 424, !19, i64 432, !18, i64 440, !7, i64 448, !7, i64 456, !19, i64 464}
!6 = !{!"p1 _ZTS7AVClass", !7, i64 0}
!7 = !{!"any pointer", !8, i64 0}
!8 = !{!"omnipotent char", !9, i64 0}
!9 = !{!"Simple C/C++ TBAA"}
!10 = !{!"p1 _ZTS13AVInputFormat", !7, i64 0}
!11 = !{!"p1 _ZTS14AVOutputFormat", !7, i64 0}
!12 = !{!"p1 _ZTS11AVIOContext", !7, i64 0}
!13 = !{!"int", !8, i64 0}
!14 = !{!"p2 _ZTS8AVStream", !15, i64 0}
!15 = !{!"any p2 pointer", !7, i64 0}
!16 = !{!"p2 _ZTS13AVStreamGroup", !15, i64 0}
!17 = !{!"p2 _ZTS9AVChapter", !15, i64 0}
!18 = !{!"p1 omnipotent char", !7, i64 0}
!19 = !{!"long", !8, i64 0}
!20 = !{!"p2 _ZTS9AVProgram", !15, i64 0}
!21 = !{!"p1 _ZTS12AVDictionary", !7, i64 0}
!22 = !{!"AVIOInterruptCB", !7, i64 0, !7, i64 8}
!23 = !{!"p1 _ZTS7AVCodec", !7, i64 0}
!24 = !{!25, !25, i64 0}
!25 = !{!"p1 _ZTS8AVStream", !7, i64 0}
!26 = !{!27, !28, i64 16}
!27 = !{!"AVStream", !6, i64 0, !13, i64 8, !13, i64 12, !28, i64 16, !7, i64 24, !29, i64 32, !19, i64 40, !19, i64 48, !19, i64 56, !13, i64 64, !13, i64 68, !29, i64 72, !21, i64 80, !29, i64 88, !30, i64 96, !13, i64 200, !29, i64 204, !13, i64 212}
!28 = !{!"p1 _ZTS17AVCodecParameters", !7, i64 0}
!29 = !{!"AVRational", !13, i64 0, !13, i64 4}
!30 = !{!"AVPacket", !31, i64 0, !19, i64 8, !19, i64 16, !18, i64 24, !13, i64 32, !13, i64 36, !13, i64 40, !32, i64 48, !13, i64 56, !19, i64 64, !19, i64 72, !7, i64 80, !31, i64 88, !29, i64 96}
!31 = !{!"p1 _ZTS11AVBufferRef", !7, i64 0}
!32 = !{!"p1 _ZTS16AVPacketSideData", !7, i64 0}
!33 = !{!34, !13, i64 24}
!34 = !{!"AVCodecParameters", !13, i64 0, !13, i64 4, !13, i64 8, !18, i64 16, !13, i64 24, !32, i64 32, !13, i64 40, !13, i64 44, !19, i64 48, !13, i64 56, !13, i64 60, !13, i64 64, !13, i64 68, !13, i64 72, !13, i64 76, !29, i64 80, !29, i64 88, !13, i64 96, !13, i64 100, !13, i64 104, !13, i64 108, !13, i64 112, !13, i64 116, !13, i64 120, !35, i64 128, !13, i64 152, !13, i64 156, !13, i64 160, !13, i64 164, !13, i64 168, !13, i64 172}
!35 = !{!"AVChannelLayout", !13, i64 0, !13, i64 4, !8, i64 8, !7, i64 16}
!36 = !{!34, !13, i64 4}
!37 = !{!8, !8, i64 0}
!38 = !{!34, !18, i64 16}
!39 = !{!5, !12, i64 32}
